(dp0
S'username'
p1
S'BebeDu63'
p2
sS'useremail'
p3
S'bebe@gmail.com'
p4
sS'firstname'
p5
S'Snow'
p6
sS'lastname'
p7
S'Ben'
p8
sS'userpwdconf'
p9
S'13521c9768e32ef08ae20e0fea63e433525c2e6456ccb1abe01bdc45437d4222cb43dad8bb561d159f44364538e5fc5c0660aa85db7096331e36e8441fda9866'
p10
sS'birthdate'
p11
S'11/03/1993'
p12
sS'userpwd'
p13
S'13521c9768e32ef08ae20e0fea63e433525c2e6456ccb1abe01bdc45437d4222cb43dad8bb561d159f44364538e5fc5c0660aa85db7096331e36e8441fda9866'
p14
s.