(dp0
S'username'
p1
S'Roger666'
p2
sS'useremail'
p3
S'roger.toto@toto.fr'
p4
sS'firstname'
p5
S'Roger'
p6
sS'lastname'
p7
S'Toto'
p8
sS'birthdate'
p9
S'29/02/1984'
p10
sS'userpwd'
p11
S'94f6afd1872c459cdd9b0d8780c6b0f7ae911ad9cb35e06d58883bede079ba409984402b7141fb3b4992bd7c1645c4991047ef051e4eae145765719c2d13ccaa'
p12
s.