(dp0
S'username'
p1
S'Benjidu03'
p2
sS'useremail'
p3
S'benji@mail.fr'
p4
sS'firstname'
p5
S'Barbesange'
p6
sS'lastname'
p7
S'Benjamin'
p8
sS'userpwdconf'
p9
S'cbe0cd68cbca3868250c0ba545c48032f43eb0e8a5e6bab603d109251486f77a91e46a3146d887e37416c6bdb6cbe701bd514de778573c9b0068483c1c626aec'
p10
sS'birthdate'
p11
S'22/12/1994'
p12
sS'userpwd'
p13
S'cbe0cd68cbca3868250c0ba545c48032f43eb0e8a5e6bab603d109251486f77a91e46a3146d887e37416c6bdb6cbe701bd514de778573c9b0068483c1c626aec'
p14
s.